target datalayout = "e-m:e-p270:32:32-p271:32:32-p272:64:64-i64:64-i128:128-f80:128-n8:16:32:64-S128"
target triple = "x86_64-pc-linux-gnu"

%struct.Abc_Frame_t_ = type { ptr, ptr, ptr, ptr, ptr, ptr, ptr, ptr, ptr, ptr, i32, i32, i32, i32, i32, ptr, float, float, i32, i32, ptr, ptr, ptr, double, double, ptr, ptr, ptr, ptr, ptr, ptr, ptr, ptr, ptr, ptr, ptr, ptr, float, ptr, i32, ptr, ptr, ptr, ptr, ptr, i32, i32, i32, i32, i32, i32, ptr, ptr, ptr, ptr, ptr, ptr, i32, i32, ptr, ptr, ptr, ptr, ptr, ptr, ptr, ptr, ptr, ptr, ptr, ptr, ptr, ptr, ptr, ptr, ptr, ptr, ptr, ptr, ptr, ptr, ptr, ptr, ptr, ptr, ptr, ptr, ptr, ptr }

@globalUtilOptind = external global i32, align 4
@.str.165 = private unnamed_addr constant [2 x i8] c"h\00", align 1
@.str.274 = private unnamed_addr constant [42 x i8] c"usage: write_book [-h] <file> [-options]\0A\00", align 1
@.str.275 = private unnamed_addr constant [35 x i8] c"\09-h     : prints the help massage\0A\00", align 1
@.str.276 = private unnamed_addr constant [73 x i8] c"\09file   : the name of the file to write (extension .aux, .nodes, .nets)\0A\00", align 1
@.str.277 = private unnamed_addr constant [3 x i8] c"\09\0A\00", align 1
@.str.278 = private unnamed_addr constant [71 x i8] c"\09This command is developed by Myungchul Kim (University of Michigan).\0A\00", align 1

; Function Attrs: nounwind uwtable
define internal i32 @IoCommandWriteBook(ptr noundef %0, i32 noundef %1, ptr noundef %2) #0 {
  %4 = alloca i32, align 4
  %5 = alloca ptr, align 8
  %6 = alloca i32, align 4
  %7 = alloca ptr, align 8
  %8 = alloca ptr, align 8
  %9 = alloca i32, align 4
  %10 = alloca i32, align 4
  store ptr %0, ptr %5, align 8, !tbaa !3
  store i32 %1, ptr %6, align 4, !tbaa !8
  store ptr %2, ptr %7, align 8, !tbaa !10
  call void @llvm.lifetime.start.p0(i64 8, ptr %8) #11
  call void @llvm.lifetime.start.p0(i64 4, ptr %9) #11
  call void (...) @Extra_UtilGetoptReset()
  br label %11

11:                                               ; preds = %3
  %12 = load i32, ptr %6, align 4, !tbaa !8
  %13 = load ptr, ptr %7, align 8, !tbaa !10
  %14 = call i32 @Extra_UtilGetopt(i32 noundef %12, ptr noundef %13, ptr noundef @.str.165)
  store i32 %14, ptr %9, align 4, !tbaa !8
  %15 = icmp ne i32 %14, -1
  br i1 %15, label %16, label %20

16:                                               ; preds = %11
  %17 = load i32, ptr %9, align 4, !tbaa !8
  switch i32 %17, label %19 [
    i32 104, label %18
  ]

18:                                               ; preds = %16
  br label %36

19:                                               ; preds = %16
  br label %36

20:                                               ; preds = %11
  %21 = load i32, ptr %6, align 4, !tbaa !8
  %22 = load i32, ptr @globalUtilOptind, align 4, !tbaa !8
  %23 = add nsw i32 %22, 1
  %24 = icmp ne i32 %21, %23
  br i1 %24, label %25, label %26

25:                                               ; preds = %20
  br label %36

26:                                               ; preds = %20
  %27 = load ptr, ptr %7, align 8, !tbaa !10
  %28 = load i32, ptr @globalUtilOptind, align 4, !tbaa !8
  %29 = sext i32 %28 to i64
  %30 = getelementptr inbounds ptr, ptr %27, i64 %29
  %31 = load ptr, ptr %30, align 8, !tbaa !14
  store ptr %31, ptr %8, align 8, !tbaa !14
  %32 = load ptr, ptr %5, align 8, !tbaa !3
  %33 = getelementptr inbounds nuw %struct.Abc_Frame_t_, ptr %32, i32 0, i32 6
  %34 = load ptr, ptr %33, align 8, !tbaa !44
  %35 = load ptr, ptr %8, align 8, !tbaa !14
  call void @Io_Write(ptr noundef %34, ptr noundef %35, i32 noundef 7)
  store i32 0, ptr %4, align 4
  store i32 1, ptr %10, align 4
  br label %57

36:                                               ; preds = %25, %19, %18
  %37 = load ptr, ptr %5, align 8, !tbaa !3
  %38 = getelementptr inbounds nuw %struct.Abc_Frame_t_, ptr %37, i32 0, i32 21
  %39 = load ptr, ptr %38, align 8, !tbaa !24
  %40 = call i32 (ptr, ptr, ...) @fprintf(ptr noundef %39, ptr noundef @.str.274) #11
  %41 = load ptr, ptr %5, align 8, !tbaa !3
  %42 = getelementptr inbounds nuw %struct.Abc_Frame_t_, ptr %41, i32 0, i32 21
  %43 = load ptr, ptr %42, align 8, !tbaa !24
  %44 = call i32 (ptr, ptr, ...) @fprintf(ptr noundef %43, ptr noundef @.str.275) #11
  %45 = load ptr, ptr %5, align 8, !tbaa !3
  %46 = getelementptr inbounds nuw %struct.Abc_Frame_t_, ptr %45, i32 0, i32 21
  %47 = load ptr, ptr %46, align 8, !tbaa !24
  %48 = call i32 (ptr, ptr, ...) @fprintf(ptr noundef %47, ptr noundef @.str.276) #11
  %49 = load ptr, ptr %5, align 8, !tbaa !3
  %50 = getelementptr inbounds nuw %struct.Abc_Frame_t_, ptr %49, i32 0, i32 21
  %51 = load ptr, ptr %50, align 8, !tbaa !24
  %52 = call i32 (ptr, ptr, ...) @fprintf(ptr noundef %51, ptr noundef @.str.277) #11
  %53 = load ptr, ptr %5, align 8, !tbaa !3
  %54 = getelementptr inbounds nuw %struct.Abc_Frame_t_, ptr %53, i32 0, i32 21
  %55 = load ptr, ptr %54, align 8, !tbaa !24
  %56 = call i32 (ptr, ptr, ...) @fprintf(ptr noundef %55, ptr noundef @.str.278) #11
  store i32 1, ptr %4, align 4
  store i32 1, ptr %10, align 4
  br label %57

57:                                               ; preds = %36, %26
  call void @llvm.lifetime.end.p0(i64 4, ptr %9) #11
  call void @llvm.lifetime.end.p0(i64 8, ptr %8) #11
  %58 = load i32, ptr %4, align 4
  ret i32 %58
}