; Function Attrs: nounwind uwtable
define internal range(i32 0, 2) i32 @IoCommandWriteBook(ptr noundef readonly captures(none) %0, i32 noundef %1, ptr noundef %2) #0 {
  tail call void (...) @Extra_UtilGetoptReset() #18
  %4 = tail call i32 @Extra_UtilGetopt(i32 noundef %1, ptr noundef %2, ptr noundef nonnull @.str.165) #18
  %.not = icmp eq i32 %4, -1
  br i1 %.not, label %5, label %14

5:                                                ; preds = %3
  %6 = load i32, ptr @globalUtilOptind, align 4, !tbaa !3
  %7 = add nsw i32 %6, 1
  %.not11 = icmp eq i32 %1, %7
  br i1 %.not11, label %8, label %14

8:                                                ; preds = %5
  %9 = sext i32 %6 to i64
  %10 = getelementptr inbounds ptr, ptr %2, i64 %9
  %11 = load ptr, ptr %10, align 8, !tbaa !9
  %12 = getelementptr inbounds nuw i8, ptr %0, i64 48
  %13 = load ptr, ptr %12, align 8, !tbaa !49
  tail call void @Io_Write(ptr noundef %13, ptr noundef %11, i32 noundef 7) #18
  br label %26

14:                                               ; preds = %5, %3
  %15 = getelementptr inbounds nuw i8, ptr %0, i64 136
  %16 = load ptr, ptr %15, align 8, !tbaa !34
  %17 = tail call i64 @fwrite(ptr nonnull @.str.274, i64 41, i64 1, ptr %16)
  %18 = load ptr, ptr %15, align 8, !tbaa !34
  %19 = tail call i64 @fwrite(ptr nonnull @.str.275, i64 34, i64 1, ptr %18)
  %20 = load ptr, ptr %15, align 8, !tbaa !34
  %21 = tail call i64 @fwrite(ptr nonnull @.str.276, i64 72, i64 1, ptr %20)
  %22 = load ptr, ptr %15, align 8, !tbaa !34
  %23 = tail call i64 @fwrite(ptr nonnull @.str.277, i64 2, i64 1, ptr %22)
  %24 = load ptr, ptr %15, align 8, !tbaa !34
  %25 = tail call i64 @fwrite(ptr nonnull @.str.278, i64 70, i64 1, ptr %24)
  br label %26

26:                                               ; preds = %14, %8
  %.0 = phi i32 [ 1, %14 ], [ 0, %8 ]
  ret i32 %.0
}